Certificate:
    Data:
        Version: 3 (0x2)
        Serial Number: 3 (0x3)
    Signature Algorithm: ecdsa-with-SHA256
        Issuer: C=CN, ST=Shanghai, L=Shanghai, O=SuperSocket, OU=GlobalSign Root CA - R3, CN=GlobalSign
        Validity
            Not Before: Dec 26 13:37:00 2019 GMT
            Not After : Dec 23 13:37:00 2029 GMT
        Subject: C=CN, ST=Shanghai, O=SuperSocket, CN=127.0.0.1
        Subject Public Key Info:
            Public Key Algorithm: id-ecPublicKey
                Public-Key: (256 bit)
                pub:
                    04:2d:a8:5f:5b:bd:00:58:35:bd:af:68:47:7f:bc:
                    b1:d1:74:fc:76:d0:80:06:78:e6:91:1e:43:81:98:
                    b1:a2:3c:d9:03:6d:2e:ac:7a:d6:c9:78:6b:4e:ff:
                    d6:35:f9:03:ef:e0:da:d1:9c:0a:1a:38:ba:dc:81:
                    46:99:ac:7a:85
                ASN1 OID: prime256v1
                NIST CURVE: P-256
        X509v3 extensions:
            X509v3 Subject Key Identifier: 
                82:B9:52:4B:9F:3E:0B:55:E3:DF:D5:E1:B7:C9:D9:EC:51:07:EF:4E
            X509v3 Authority Key Identifier: 
                keyid:47:2C:2D:75:1F:89:A7:70:68:13:68:DA:6F:84:FC:4F:1F:C0:62:87

            X509v3 Basic Constraints: 
                CA:FALSE
            X509v3 Key Usage: 
                Digital Signature, Key Encipherment
    Signature Algorithm: ecdsa-with-SHA256
         30:46:02:21:00:ba:39:f9:a8:26:96:85:80:6d:bb:de:26:a4:
         0f:bf:b2:d2:88:24:e9:c4:ce:58:6c:4b:6c:c5:f9:66:62:27:
         27:02:21:00:eb:f4:1f:8e:d8:e3:e1:3b:89:51:60:f5:a9:55:
         25:41:5e:82:4c:13:12:ec:ab:d6:8f:45:f1:55:f0:bf:b3:0e
-----BEGIN CERTIFICATE-----
MIICFTCCAbqgAwIBAgIBAzAKBggqhkjOPQQDAjCBgDELMAkGA1UEBhMCQ04xETAP
BgNVBAgTCFNoYW5naGFpMREwDwYDVQQHEwhTaGFuZ2hhaTEUMBIGA1UEChMLU3Vw
ZXJTb2NrZXQxIDAeBgNVBAsTF0dsb2JhbFNpZ24gUm9vdCBDQSAtIFIzMRMwEQYD
VQQDEwpHbG9iYWxTaWduMB4XDTE5MTIyNjEzMzcwMFoXDTI5MTIyMzEzMzcwMFow
SjELMAkGA1UEBhMCQ04xETAPBgNVBAgTCFNoYW5naGFpMRQwEgYDVQQKEwtTdXBl
clNvY2tldDESMBAGA1UEAxMJMTI3LjAuMC4xMFkwEwYHKoZIzj0CAQYIKoZIzj0D
AQcDQgAELahfW70AWDW9r2hHf7yx0XT8dtCABnjmkR5DgZixojzZA20urHrWyXhr
Tv/WNfkD7+Da0ZwKGji63IFGmax6haNaMFgwHQYDVR0OBBYEFIK5UkufPgtV49/V
4bfJ2exRB+9OMB8GA1UdIwQYMBaAFEcsLXUfiadwaBNo2m+E/E8fwGKHMAkGA1Ud
EwQCMAAwCwYDVR0PBAQDAgWgMAoGCCqGSM49BAMCA0kAMEYCIQC6OfmoJpaFgG27
3iakD7+y0ogk6cTOWGxLbMX5ZmInJwIhAOv0H47Y4+E7iVFg9alVJUFegkwTEuyr
1o9F8VXwv7MO
-----END CERTIFICATE-----
